target datalayout = "e-m:e-p270:32:32-p271:32:32-p272:64:64-i64:64-i128:128-f80:128-n8:16:32:64-S128"
target triple = "x86_64-pc-linux-gnu"

@dh_ffdhe2048_g = internal constant [1 x i8] c"\02", align 1

; Function Attrs: nounwind uwtable
define i32 @wc_DhSetNamedKey(ptr noundef %0, i32 noundef %1) #0 {
  %3 = alloca ptr, align 8
  %4 = alloca i32, align 4
  %5 = alloca ptr, align 8
  %6 = alloca ptr, align 8
  %7 = alloca ptr, align 8
  %8 = alloca i32, align 4
  %9 = alloca i32, align 4
  %10 = alloca i32, align 4
  store ptr %0, ptr %3, align 8, !tbaa !3
  store i32 %1, ptr %4, align 4, !tbaa !9
  call void @llvm.lifetime.start.p0(i64 8, ptr %5) #9
  store ptr null, ptr %5, align 8, !tbaa !16
  call void @llvm.lifetime.start.p0(i64 8, ptr %6) #9
  store ptr null, ptr %6, align 8, !tbaa !16
  call void @llvm.lifetime.start.p0(i64 8, ptr %7) #9
  store ptr null, ptr %7, align 8, !tbaa !16
  call void @llvm.lifetime.start.p0(i64 4, ptr %8) #9
  store i32 0, ptr %8, align 4, !tbaa !9
  call void @llvm.lifetime.start.p0(i64 4, ptr %9) #9
  store i32 0, ptr %9, align 4, !tbaa !9
  call void @llvm.lifetime.start.p0(i64 4, ptr %10) #9
  store i32 0, ptr %10, align 4, !tbaa !9
  %11 = load i32, ptr %4, align 4, !tbaa !9
  switch i32 %11, label %13 [
    i32 256, label %12
  ]

12:                                               ; preds = %2
  store ptr @dh_ffdhe2048_p, ptr %5, align 8, !tbaa !16
  store i32 256, ptr %8, align 4, !tbaa !9
  store ptr @dh_ffdhe2048_g, ptr %6, align 8, !tbaa !16
  store i32 1, ptr %9, align 4, !tbaa !9
  br label %14

13:                                               ; preds = %2
  br label %14

14:                                               ; preds = %13, %12
  %15 = load ptr, ptr %3, align 8, !tbaa !3
  %16 = load ptr, ptr %5, align 8, !tbaa !16
  %17 = load i32, ptr %8, align 4, !tbaa !9
  %18 = load ptr, ptr %6, align 8, !tbaa !16
  %19 = load i32, ptr %9, align 4, !tbaa !9
  %20 = load ptr, ptr %7, align 8, !tbaa !16
  %21 = load i32, ptr %10, align 4, !tbaa !9
  %22 = call i32 @_DhSetKey(ptr noundef %15, ptr noundef %16, i32 noundef %17, ptr noundef %18, i32 noundef %19, ptr noundef %20, i32 noundef %21, i32 noundef 1, ptr noundef null)
  call void @llvm.lifetime.end.p0(i64 4, ptr %10) #9
  call void @llvm.lifetime.end.p0(i64 4, ptr %9) #9
  call void @llvm.lifetime.end.p0(i64 4, ptr %8) #9
  call void @llvm.lifetime.end.p0(i64 8, ptr %7) #9
  call void @llvm.lifetime.end.p0(i64 8, ptr %6) #9
  call void @llvm.lifetime.end.p0(i64 8, ptr %5) #9
  ret i32 %22
}