; Function Attrs: nounwind uwtable
define i32 @wc_DhSetNamedKey(ptr noundef %0, i32 noundef %1) local_unnamed_addr #1 {
  %cond = icmp eq i32 %1, 256
  br i1 %cond, label %.split11, label %_DhSetKey.exit

.split11:                                         ; preds = %2
  %3 = tail call fastcc i32 @_DhSetKey(ptr noundef %0, ptr noundef nonnull @dh_ffdhe2048_p, i32 noundef 256, ptr noundef nonnull @dh_ffdhe2048_g, i32 noundef 1, ptr noundef null, i32 noundef 0, i32 noundef 1, ptr noundef null)
  br label %_DhSetKey.exit

_DhSetKey.exit:                                   ; preds = %2, %.split11
  %phi.call = phi i32 [ %3, %.split11 ], [ -173, %2 ]
  ret i32 %phi.call
}